(i__main__
Case
p1
(dp2
S'path'
p3
(lp4
(lp5
I2
aI0
aI3
aI1
aI5
aI6
aI4
aI7
aI8
aa(lp6
I0
aI2
aI3
aI1
aI5
aI6
aI4
aI7
aI8
aa(lp7
I1
aI2
aI3
aI0
aI5
aI6
aI4
aI7
aI8
aa(lp8
I1
aI2
aI3
aI4
aI5
aI6
aI0
aI7
aI8
aa(lp9
I1
aI2
aI3
aI4
aI5
aI6
aI7
aI0
aI8
aa(lp10
I1
aI2
aI3
aI4
aI5
aI6
aI7
aI8
aI0
aasS'goalState'
p11
(lp12
I1
aI2
aI3
aI4
aI5
aI6
aI7
aI8
aI0
asS'initialState'
p13
g5
sb.(i__main__
Case
p14
(dp15
g3
(lp16
(lp17
I1
aI2
aI3
aI0
aI4
aI6
aI7
aI5
aI8
aa(lp18
I1
aI2
aI3
aI4
aI0
aI6
aI7
aI5
aI8
aa(lp19
I1
aI2
aI3
aI4
aI5
aI6
aI7
aI0
aI8
aa(lp20
I1
aI2
aI3
aI4
aI5
aI6
aI7
aI8
aI0
aasg11
g12
sg13
g17
sb.(i__main__
Case
p21
(dp22
g3
(lp23
(lp24
I1
aI2
aI3
aI4
aI5
aI6
aI7
aI0
aI8
aa(lp25
I1
aI2
aI3
aI4
aI5
aI6
aI7
aI8
aI0
aasg11
g12
sg13
g24
sb.(i__main__
Case
p26
(dp27
g3
(lp28
(lp29
I1
aI0
aI3
aI5
aI2
aI6
aI4
aI7
aI8
aa(lp30
I1
aI2
aI3
aI5
aI0
aI6
aI4
aI7
aI8
aa(lp31
I1
aI2
aI3
aI0
aI5
aI6
aI4
aI7
aI8
aa(lp32
I1
aI2
aI3
aI4
aI5
aI6
aI0
aI7
aI8
aa(lp33
I1
aI2
aI3
aI4
aI5
aI6
aI7
aI0
aI8
aa(lp34
I1
aI2
aI3
aI4
aI5
aI6
aI7
aI8
aI0
aasg11
g12
sg13
g29
sb.(i__main__
Case
p35
(dp36
g3
(lp37
(lp38
I1
aI2
aI3
aI4
aI8
aI5
aI7
aI0
aI6
aa(lp39
I1
aI2
aI3
aI4
aI0
aI5
aI7
aI8
aI6
aa(lp40
I1
aI2
aI3
aI4
aI5
aI0
aI7
aI8
aI6
aa(lp41
I1
aI2
aI3
aI4
aI5
aI6
aI7
aI8
aI0
aasg11
g12
sg13
g38
sb.(i__main__
Case
p42
(dp43
g3
(lp44
(lp45
I2
aI8
aI3
aI1
aI0
aI5
aI4
aI7
aI6
aa(lp46
I2
aI0
aI3
aI1
aI8
aI5
aI4
aI7
aI6
aa(lp47
I0
aI2
aI3
aI1
aI8
aI5
aI4
aI7
aI6
aa(lp48
I1
aI2
aI3
aI0
aI8
aI5
aI4
aI7
aI6
aa(lp49
I1
aI2
aI3
aI4
aI8
aI5
aI0
aI7
aI6
aa(lp50
I1
aI2
aI3
aI4
aI8
aI5
aI7
aI0
aI6
aa(lp51
I1
aI2
aI3
aI4
aI0
aI5
aI7
aI8
aI6
aa(lp52
I1
aI2
aI3
aI4
aI5
aI0
aI7
aI8
aI6
aa(lp53
I1
aI2
aI3
aI4
aI5
aI6
aI7
aI8
aI0
aasg11
g12
sg13
g45
sb.(i__main__
Case
p54
(dp55
g3
(lp56
(lp57
I1
aI2
aI3
aI4
aI5
aI6
aI0
aI7
aI8
aa(lp58
I1
aI2
aI3
aI4
aI5
aI6
aI7
aI0
aI8
aa(lp59
I1
aI2
aI3
aI4
aI5
aI6
aI7
aI8
aI0
aasg11
g12
sg13
g57
sb.(i__main__
Case
p60
(dp61
g3
(lp62
(lp63
I0
aI2
aI3
aI1
aI5
aI6
aI4
aI7
aI8
aa(lp64
I1
aI2
aI3
aI0
aI5
aI6
aI4
aI7
aI8
aa(lp65
I1
aI2
aI3
aI4
aI5
aI6
aI0
aI7
aI8
aa(lp66
I1
aI2
aI3
aI4
aI5
aI6
aI7
aI0
aI8
aa(lp67
I1
aI2
aI3
aI4
aI5
aI6
aI7
aI8
aI0
aasg11
g12
sg13
g63
sb.(i__main__
Case
p68
(dp69
g3
(lp70
(lp71
I1
aI3
aI0
aI4
aI2
aI6
aI7
aI5
aI8
aa(lp72
I1
aI0
aI3
aI4
aI2
aI6
aI7
aI5
aI8
aa(lp73
I1
aI2
aI3
aI4
aI0
aI6
aI7
aI5
aI8
aa(lp74
I1
aI2
aI3
aI4
aI5
aI6
aI7
aI0
aI8
aa(lp75
I1
aI2
aI3
aI4
aI5
aI6
aI7
aI8
aI0
aasg11
g12
sg13
g71
sb.(i__main__
Case
p76
(dp77
g3
(lp78
(lp79
I1
aI3
aI0
aI4
aI2
aI5
aI7
aI8
aI6
aa(lp80
I1
aI0
aI3
aI4
aI2
aI5
aI7
aI8
aI6
aa(lp81
I1
aI2
aI3
aI4
aI0
aI5
aI7
aI8
aI6
aa(lp82
I1
aI2
aI3
aI4
aI5
aI0
aI7
aI8
aI6
aa(lp83
I1
aI2
aI3
aI4
aI5
aI6
aI7
aI8
aI0
aasg11
g12
sg13
g79
sb.(i__main__
Case
p84
(dp85
g3
(lp86
(lp87
I0
aI5
aI3
aI2
aI1
aI6
aI4
aI7
aI8
aa(lp88
I2
aI5
aI3
aI0
aI1
aI6
aI4
aI7
aI8
aa(lp89
I2
aI5
aI3
aI1
aI0
aI6
aI4
aI7
aI8
aa(lp90
I2
aI0
aI3
aI1
aI5
aI6
aI4
aI7
aI8
aa(lp91
I0
aI2
aI3
aI1
aI5
aI6
aI4
aI7
aI8
aa(lp92
I1
aI2
aI3
aI0
aI5
aI6
aI4
aI7
aI8
aa(lp93
I1
aI2
aI3
aI4
aI5
aI6
aI0
aI7
aI8
aa(lp94
I1
aI2
aI3
aI4
aI5
aI6
aI7
aI0
aI8
aa(lp95
I1
aI2
aI3
aI4
aI5
aI6
aI7
aI8
aI0
aasg11
g12
sg13
g87
sb.(i__main__
Case
p96
(dp97
g3
(lp98
(lp99
I5
aI1
aI3
aI2
aI0
aI6
aI4
aI7
aI8
aa(lp100
I5
aI1
aI3
aI0
aI2
aI6
aI4
aI7
aI8
aa(lp101
I0
aI1
aI3
aI5
aI2
aI6
aI4
aI7
aI8
aa(lp102
I1
aI0
aI3
aI5
aI2
aI6
aI4
aI7
aI8
aa(lp103
I1
aI2
aI3
aI5
aI0
aI6
aI4
aI7
aI8
aa(lp104
I1
aI2
aI3
aI0
aI5
aI6
aI4
aI7
aI8
aa(lp105
I1
aI2
aI3
aI4
aI5
aI6
aI0
aI7
aI8
aa(lp106
I1
aI2
aI3
aI4
aI5
aI6
aI7
aI0
aI8
aa(lp107
I1
aI2
aI3
aI4
aI5
aI6
aI7
aI8
aI0
aasg11
g12
sg13
g99
sb.(i__main__
Case
p108
(dp109
g3
(lp110
(lp111
I2
aI3
aI8
aI1
aI6
aI5
aI4
aI7
aI0
aa(lp112
I2
aI3
aI8
aI1
aI6
aI0
aI4
aI7
aI5
aa(lp113
I2
aI3
aI0
aI1
aI6
aI8
aI4
aI7
aI5
aa(lp114
I2
aI0
aI3
aI1
aI6
aI8
aI4
aI7
aI5
aa(lp115
I0
aI2
aI3
aI1
aI6
aI8
aI4
aI7
aI5
aa(lp116
I1
aI2
aI3
aI0
aI6
aI8
aI4
aI7
aI5
aa(lp117
I1
aI2
aI3
aI4
aI6
aI8
aI0
aI7
aI5
aa(lp118
I1
aI2
aI3
aI4
aI6
aI8
aI7
aI0
aI5
aa(lp119
I1
aI2
aI3
aI4
aI6
aI8
aI7
aI5
aI0
aa(lp120
I1
aI2
aI3
aI4
aI6
aI0
aI7
aI5
aI8
aa(lp121
I1
aI2
aI3
aI4
aI0
aI6
aI7
aI5
aI8
aa(lp122
I1
aI2
aI3
aI4
aI5
aI6
aI7
aI0
aI8
aa(lp123
I1
aI2
aI3
aI4
aI5
aI6
aI7
aI8
aI0
aasg11
g12
sg13
g111
sb.(i__main__
Case
p124
(dp125
g3
(lp126
(lp127
I1
aI2
aI3
aI5
aI0
aI6
aI4
aI7
aI8
aa(lp128
I1
aI2
aI3
aI0
aI5
aI6
aI4
aI7
aI8
aa(lp129
I1
aI2
aI3
aI4
aI5
aI6
aI0
aI7
aI8
aa(lp130
I1
aI2
aI3
aI4
aI5
aI6
aI7
aI0
aI8
aa(lp131
I1
aI2
aI3
aI4
aI5
aI6
aI7
aI8
aI0
aasg11
g12
sg13
g127
sb.(i__main__
Case
p132
(dp133
g3
(lp134
(lp135
I0
aI3
aI6
aI2
aI1
aI5
aI4
aI7
aI8
aa(lp136
I2
aI3
aI6
aI0
aI1
aI5
aI4
aI7
aI8
aa(lp137
I2
aI3
aI6
aI1
aI0
aI5
aI4
aI7
aI8
aa(lp138
I2
aI3
aI6
aI1
aI5
aI0
aI4
aI7
aI8
aa(lp139
I2
aI3
aI0
aI1
aI5
aI6
aI4
aI7
aI8
aa(lp140
I2
aI0
aI3
aI1
aI5
aI6
aI4
aI7
aI8
aa(lp141
I0
aI2
aI3
aI1
aI5
aI6
aI4
aI7
aI8
aa(lp142
I1
aI2
aI3
aI0
aI5
aI6
aI4
aI7
aI8
aa(lp143
I1
aI2
aI3
aI4
aI5
aI6
aI0
aI7
aI8
aa(lp144
I1
aI2
aI3
aI4
aI5
aI6
aI7
aI0
aI8
aa(lp145
I1
aI2
aI3
aI4
aI5
aI6
aI7
aI8
aI0
aasg11
g12
sg13
g135
sb.(i__main__
Case
p1
(dp2
S'path'
p3
(lp4
(lp5
I2
aI6
aI5
aI4
aI0
aI3
aI7
aI1
aI8
aa(lp6
I2
aI0
aI5
aI4
aI6
aI3
aI7
aI1
aI8
aa(lp7
I2
aI5
aI0
aI4
aI6
aI3
aI7
aI1
aI8
aa(lp8
I2
aI5
aI3
aI4
aI6
aI0
aI7
aI1
aI8
aa(lp9
I2
aI5
aI3
aI4
aI0
aI6
aI7
aI1
aI8
aa(lp10
I2
aI5
aI3
aI4
aI1
aI6
aI7
aI0
aI8
aa(lp11
I2
aI5
aI3
aI4
aI1
aI6
aI0
aI7
aI8
aa(lp12
I2
aI5
aI3
aI0
aI1
aI6
aI4
aI7
aI8
aa(lp13
I2
aI5
aI3
aI1
aI0
aI6
aI4
aI7
aI8
aa(lp14
I2
aI0
aI3
aI1
aI5
aI6
aI4
aI7
aI8
aa(lp15
I0
aI2
aI3
aI1
aI5
aI6
aI4
aI7
aI8
aa(lp16
I1
aI2
aI3
aI0
aI5
aI6
aI4
aI7
aI8
aa(lp17
I1
aI2
aI3
aI4
aI5
aI6
aI0
aI7
aI8
aa(lp18
I1
aI2
aI3
aI4
aI5
aI6
aI7
aI0
aI8
aa(lp19
I1
aI2
aI3
aI4
aI5
aI6
aI7
aI8
aI0
aasS'goalState'
p20
(lp21
I1
aI2
aI3
aI4
aI5
aI6
aI7
aI8
aI0
asS'initialState'
p22
g5
sb.(i__main__
Case
p1
(dp2
S'path'
p3
(lp4
(lp5
I3
aI6
aI0
aI5
aI7
aI8
aI2
aI1
aI4
aa(lp6
I3
aI0
aI6
aI5
aI7
aI8
aI2
aI1
aI4
aa(lp7
I0
aI3
aI6
aI5
aI7
aI8
aI2
aI1
aI4
aa(lp8
I5
aI3
aI6
aI0
aI7
aI8
aI2
aI1
aI4
aa(lp9
I5
aI3
aI6
aI2
aI7
aI8
aI0
aI1
aI4
aa(lp10
I5
aI3
aI6
aI2
aI7
aI8
aI1
aI0
aI4
aa(lp11
I5
aI3
aI6
aI2
aI7
aI8
aI1
aI4
aI0
aa(lp12
I5
aI3
aI6
aI2
aI7
aI0
aI1
aI4
aI8
aa(lp13
I5
aI3
aI0
aI2
aI7
aI6
aI1
aI4
aI8
aa(lp14
I5
aI0
aI3
aI2
aI7
aI6
aI1
aI4
aI8
aa(lp15
I0
aI5
aI3
aI2
aI7
aI6
aI1
aI4
aI8
aa(lp16
I2
aI5
aI3
aI0
aI7
aI6
aI1
aI4
aI8
aa(lp17
I2
aI5
aI3
aI1
aI7
aI6
aI0
aI4
aI8
aa(lp18
I2
aI5
aI3
aI1
aI7
aI6
aI4
aI0
aI8
aa(lp19
I2
aI5
aI3
aI1
aI0
aI6
aI4
aI7
aI8
aa(lp20
I2
aI0
aI3
aI1
aI5
aI6
aI4
aI7
aI8
aa(lp21
I0
aI2
aI3
aI1
aI5
aI6
aI4
aI7
aI8
aa(lp22
I1
aI2
aI3
aI0
aI5
aI6
aI4
aI7
aI8
aa(lp23
I1
aI2
aI3
aI4
aI5
aI6
aI0
aI7
aI8
aa(lp24
I1
aI2
aI3
aI4
aI5
aI6
aI7
aI0
aI8
aa(lp25
I1
aI2
aI3
aI4
aI5
aI6
aI7
aI8
aI0
aasS'goalState'
p26
(lp27
I1
aI2
aI3
aI4
aI5
aI6
aI7
aI8
aI0
asS'initialState'
p28
g5
sb.(i__main__
Case
p1
(dp2
S'path'
p3
(lp4
(lp5
I1
aI5
aI0
aI2
aI3
aI8
aI4
aI6
aI7
aa(lp6
I1
aI0
aI5
aI2
aI3
aI8
aI4
aI6
aI7
aa(lp7
I1
aI3
aI5
aI2
aI0
aI8
aI4
aI6
aI7
aa(lp8
I1
aI3
aI5
aI2
aI6
aI8
aI4
aI0
aI7
aa(lp9
I1
aI3
aI5
aI2
aI6
aI8
aI4
aI7
aI0
aa(lp10
I1
aI3
aI5
aI2
aI6
aI0
aI4
aI7
aI8
aa(lp11
I1
aI3
aI5
aI2
aI0
aI6
aI4
aI7
aI8
aa(lp12
I1
aI3
aI5
aI0
aI2
aI6
aI4
aI7
aI8
aa(lp13
I1
aI3
aI5
aI4
aI2
aI6
aI0
aI7
aI8
aa(lp14
I1
aI3
aI5
aI4
aI2
aI6
aI7
aI0
aI8
aa(lp15
I1
aI3
aI5
aI4
aI2
aI6
aI7
aI8
aI0
aa(lp16
I1
aI3
aI5
aI4
aI2
aI0
aI7
aI8
aI6
aa(lp17
I1
aI3
aI0
aI4
aI2
aI5
aI7
aI8
aI6
aa(lp18
I1
aI0
aI3
aI4
aI2
aI5
aI7
aI8
aI6
aa(lp19
I1
aI2
aI3
aI4
aI0
aI5
aI7
aI8
aI6
aa(lp20
I1
aI2
aI3
aI4
aI5
aI0
aI7
aI8
aI6
aa(lp21
I1
aI2
aI3
aI4
aI5
aI6
aI7
aI8
aI0
aasS'goalState'
p22
(lp23
I1
aI2
aI3
aI4
aI5
aI6
aI7
aI8
aI0
asS'initialState'
p24
g5
sb.(i__main__
Case
p1
(dp2
S'path'
p3
(lp4
(lp5
I2
aI5
aI3
aI4
aI0
aI8
aI6
aI1
aI7
aa(lp6
I2
aI5
aI3
aI4
aI1
aI8
aI6
aI0
aI7
aa(lp7
I2
aI5
aI3
aI4
aI1
aI8
aI0
aI6
aI7
aa(lp8
I2
aI5
aI3
aI0
aI1
aI8
aI4
aI6
aI7
aa(lp9
I2
aI5
aI3
aI1
aI0
aI8
aI4
aI6
aI7
aa(lp10
I2
aI5
aI3
aI1
aI6
aI8
aI4
aI0
aI7
aa(lp11
I2
aI5
aI3
aI1
aI6
aI8
aI4
aI7
aI0
aa(lp12
I2
aI5
aI3
aI1
aI6
aI0
aI4
aI7
aI8
aa(lp13
I2
aI5
aI3
aI1
aI0
aI6
aI4
aI7
aI8
aa(lp14
I2
aI0
aI3
aI1
aI5
aI6
aI4
aI7
aI8
aa(lp15
I0
aI2
aI3
aI1
aI5
aI6
aI4
aI7
aI8
aa(lp16
I1
aI2
aI3
aI0
aI5
aI6
aI4
aI7
aI8
aa(lp17
I1
aI2
aI3
aI4
aI5
aI6
aI0
aI7
aI8
aa(lp18
I1
aI2
aI3
aI4
aI5
aI6
aI7
aI0
aI8
aa(lp19
I1
aI2
aI3
aI4
aI5
aI6
aI7
aI8
aI0
aasS'goalState'
p20
(lp21
I1
aI2
aI3
aI4
aI5
aI6
aI7
aI8
aI0
asS'initialState'
p22
g5
sb.(i__main__
Case
p1
(dp2
S'path'
p3
(lp4
(lp5
I3
aI8
aI5
aI1
aI6
aI7
aI4
aI2
aI0
aa(lp6
I3
aI8
aI5
aI1
aI6
aI0
aI4
aI2
aI7
aa(lp7
I3
aI8
aI5
aI1
aI0
aI6
aI4
aI2
aI7
aa(lp8
I3
aI0
aI5
aI1
aI8
aI6
aI4
aI2
aI7
aa(lp9
I0
aI3
aI5
aI1
aI8
aI6
aI4
aI2
aI7
aa(lp10
I1
aI3
aI5
aI0
aI8
aI6
aI4
aI2
aI7
aa(lp11
I1
aI3
aI5
aI8
aI0
aI6
aI4
aI2
aI7
aa(lp12
I1
aI3
aI5
aI8
aI2
aI6
aI4
aI0
aI7
aa(lp13
I1
aI3
aI5
aI8
aI2
aI6
aI4
aI7
aI0
aa(lp14
I1
aI3
aI5
aI8
aI2
aI0
aI4
aI7
aI6
aa(lp15
I1
aI3
aI0
aI8
aI2
aI5
aI4
aI7
aI6
aa(lp16
I1
aI0
aI3
aI8
aI2
aI5
aI4
aI7
aI6
aa(lp17
I1
aI2
aI3
aI8
aI0
aI5
aI4
aI7
aI6
aa(lp18
I1
aI2
aI3
aI0
aI8
aI5
aI4
aI7
aI6
aa(lp19
I1
aI2
aI3
aI4
aI8
aI5
aI0
aI7
aI6
aa(lp20
I1
aI2
aI3
aI4
aI8
aI5
aI7
aI0
aI6
aa(lp21
I1
aI2
aI3
aI4
aI0
aI5
aI7
aI8
aI6
aa(lp22
I1
aI2
aI3
aI4
aI5
aI0
aI7
aI8
aI6
aa(lp23
I1
aI2
aI3
aI4
aI5
aI6
aI7
aI8
aI0
aasS'goalState'
p24
(lp25
I1
aI2
aI3
aI4
aI5
aI6
aI7
aI8
aI0
asS'initialState'
p26
g5
sb.(i__main__
Case
p1
(dp2
S'path'
p3
(lp4
(lp5
I2
aI3
aI6
aI1
aI5
aI0
aI4
aI7
aI8
aa(lp6
I2
aI3
aI0
aI1
aI5
aI6
aI4
aI7
aI8
aa(lp7
I2
aI0
aI3
aI1
aI5
aI6
aI4
aI7
aI8
aa(lp8
I0
aI2
aI3
aI1
aI5
aI6
aI4
aI7
aI8
aa(lp9
I1
aI2
aI3
aI0
aI5
aI6
aI4
aI7
aI8
aa(lp10
I1
aI2
aI3
aI4
aI5
aI6
aI0
aI7
aI8
aa(lp11
I1
aI2
aI3
aI4
aI5
aI6
aI7
aI0
aI8
aa(lp12
I1
aI2
aI3
aI4
aI5
aI6
aI7
aI8
aI0
aasS'goalState'
p13
(lp14
I1
aI2
aI3
aI4
aI5
aI6
aI7
aI8
aI0
asS'initialState'
p15
g5
sb.(i__main__
Case
p1
(dp2
S'path'
p3
(lp4
(lp5
I1
aI2
aI3
aI4
aI6
aI0
aI7
aI5
aI8
aa(lp6
I1
aI2
aI3
aI4
aI0
aI6
aI7
aI5
aI8
aa(lp7
I1
aI2
aI3
aI0
aI4
aI6
aI7
aI5
aI8
aa(lp8
I1
aI2
aI3
aI4
aI0
aI6
aI7
aI5
aI8
aa(lp9
I1
aI2
aI3
aI4
aI5
aI6
aI7
aI0
aI8
aa(lp10
I1
aI2
aI3
aI4
aI5
aI6
aI7
aI8
aI0
aasS'goalState'
p11
(lp12
I1
aI2
aI3
aI4
aI5
aI6
aI7
aI8
aI0
asS'initialState'
p13
g5
sb.(i__main__
Case
p1
(dp2
S'path'
p3
(lp4
(lp5
I1
aI0
aI3
aI4
aI2
aI6
aI7
aI5
aI8
aa(lp6
I1
aI3
aI0
aI4
aI2
aI6
aI7
aI5
aI8
aa(lp7
I1
aI0
aI3
aI4
aI2
aI6
aI7
aI5
aI8
aa(lp8
I1
aI2
aI3
aI4
aI0
aI6
aI7
aI5
aI8
aa(lp9
I1
aI2
aI3
aI4
aI5
aI6
aI7
aI0
aI8
aa(lp10
I1
aI2
aI3
aI4
aI5
aI6
aI7
aI8
aI0
aasS'goalState'
p11
(lp12
I1
aI2
aI3
aI4
aI5
aI6
aI7
aI8
aI0
asS'initialState'
p13
g5
sb.(i__main__
Case
p1
(dp2
S'path'
p3
(lp4
(lp5
I1
aI3
aI0
aI5
aI2
aI6
aI4
aI7
aI8
aa(lp6
I1
aI0
aI3
aI5
aI2
aI6
aI4
aI7
aI8
aa(lp7
I1
aI2
aI3
aI5
aI0
aI6
aI4
aI7
aI8
aa(lp8
I1
aI2
aI3
aI0
aI5
aI6
aI4
aI7
aI8
aa(lp9
I1
aI2
aI3
aI4
aI5
aI6
aI0
aI7
aI8
aa(lp10
I1
aI2
aI3
aI4
aI5
aI6
aI7
aI0
aI8
aa(lp11
I1
aI2
aI3
aI4
aI5
aI6
aI7
aI8
aI0
aasS'goalState'
p12
(lp13
I1
aI2
aI3
aI4
aI5
aI6
aI7
aI8
aI0
asS'initialState'
p14
g5
sb.(i__main__
Case
p1
(dp2
S'path'
p3
(lp4
(lp5
I1
aI2
aI3
aI4
aI8
aI5
aI0
aI7
aI6
aa(lp6
I1
aI2
aI3
aI4
aI8
aI5
aI7
aI0
aI6
aa(lp7
I1
aI2
aI3
aI4
aI0
aI5
aI7
aI8
aI6
aa(lp8
I1
aI2
aI3
aI4
aI5
aI0
aI7
aI8
aI6
aa(lp9
I1
aI2
aI3
aI4
aI5
aI6
aI7
aI8
aI0
aasS'goalState'
p10
(lp11
I1
aI2
aI3
aI4
aI5
aI6
aI7
aI8
aI0
asS'initialState'
p12
g5
sb.(i__main__
Case
p1
(dp2
S'path'
p3
(lp4
(lp5
I4
aI1
aI2
aI7
aI0
aI3
aI8
aI5
aI6
aa(lp6
I4
aI1
aI2
aI7
aI5
aI3
aI8
aI0
aI6
aa(lp7
I4
aI1
aI2
aI7
aI5
aI3
aI0
aI8
aI6
aa(lp8
I4
aI1
aI2
aI0
aI5
aI3
aI7
aI8
aI6
aa(lp9
I0
aI1
aI2
aI4
aI5
aI3
aI7
aI8
aI6
aa(lp10
I1
aI0
aI2
aI4
aI5
aI3
aI7
aI8
aI6
aa(lp11
I1
aI2
aI0
aI4
aI5
aI3
aI7
aI8
aI6
aa(lp12
I1
aI2
aI3
aI4
aI5
aI0
aI7
aI8
aI6
aa(lp13
I1
aI2
aI3
aI4
aI5
aI6
aI7
aI8
aI0
aasS'goalState'
p14
(lp15
I1
aI2
aI3
aI4
aI5
aI6
aI7
aI8
aI0
asS'initialState'
p16
g5
sb.(i__main__
Case
p1
(dp2
S'path'
p3
(lp4
(lp5
I4
aI1
aI3
aI0
aI2
aI6
aI7
aI5
aI8
aa(lp6
I0
aI1
aI3
aI4
aI2
aI6
aI7
aI5
aI8
aa(lp7
I1
aI0
aI3
aI4
aI2
aI6
aI7
aI5
aI8
aa(lp8
I1
aI3
aI0
aI4
aI2
aI6
aI7
aI5
aI8
aa(lp9
I1
aI0
aI3
aI4
aI2
aI6
aI7
aI5
aI8
aa(lp10
I1
aI2
aI3
aI4
aI0
aI6
aI7
aI5
aI8
aa(lp11
I1
aI2
aI3
aI4
aI5
aI6
aI7
aI0
aI8
aa(lp12
I1
aI2
aI3
aI4
aI5
aI6
aI7
aI8
aI0
aasS'goalState'
p13
(lp14
I1
aI2
aI3
aI4
aI5
aI6
aI7
aI8
aI0
asS'initialState'
p15
g5
sb.(i__main__
Case
p1
(dp2
S'path'
p3
(lp4
(lp5
I0
aI2
aI3
aI1
aI5
aI6
aI4
aI7
aI8
aa(lp6
I1
aI2
aI3
aI0
aI5
aI6
aI4
aI7
aI8
aa(lp7
I1
aI2
aI3
aI4
aI5
aI6
aI0
aI7
aI8
aa(lp8
I1
aI2
aI3
aI4
aI5
aI6
aI7
aI0
aI8
aa(lp9
I1
aI2
aI3
aI4
aI5
aI6
aI7
aI8
aI0
aasS'goalState'
p10
(lp11
I1
aI2
aI3
aI4
aI5
aI6
aI7
aI8
aI0
asS'initialState'
p12
(lp13
I0
aI2
aI3
aI1
aI5
aI6
aI4
aI7
aI8
asb.(i__main__
Case
p1
(dp2
S'path'
p3
(lp4
(lp5
I0
aI2
aI3
aI1
aI4
aI5
aI7
aI8
aI6
aa(lp6
I1
aI2
aI3
aI0
aI4
aI5
aI7
aI8
aI6
aa(lp7
I1
aI2
aI3
aI4
aI0
aI5
aI7
aI8
aI6
aa(lp8
I1
aI2
aI3
aI4
aI8
aI5
aI7
aI0
aI6
aa(lp9
I1
aI2
aI3
aI4
aI0
aI5
aI7
aI8
aI6
aa(lp10
I1
aI2
aI3
aI4
aI5
aI0
aI7
aI8
aI6
aa(lp11
I1
aI2
aI3
aI4
aI5
aI6
aI7
aI8
aI0
aasS'goalState'
p12
(lp13
I1
aI2
aI3
aI4
aI5
aI6
aI7
aI8
aI0
asS'initialState'
p14
g5
sb.(i__main__
Case
p1
(dp2
S'path'
p3
(lp4
(lp5
I2
aI0
aI3
aI1
aI4
aI6
aI7
aI5
aI8
aa(lp6
I0
aI2
aI3
aI1
aI4
aI6
aI7
aI5
aI8
aa(lp7
I1
aI2
aI3
aI0
aI4
aI6
aI7
aI5
aI8
aa(lp8
I1
aI2
aI3
aI4
aI0
aI6
aI7
aI5
aI8
aa(lp9
I1
aI2
aI3
aI4
aI5
aI6
aI7
aI0
aI8
aa(lp10
I1
aI2
aI3
aI4
aI5
aI6
aI7
aI8
aI0
aasS'goalState'
p11
(lp12
I1
aI2
aI3
aI4
aI5
aI6
aI7
aI8
aI0
asS'initialState'
p13
g5
sb.(i__main__
Case
p1
(dp2
S'path'
p3
(lp4
(lp5
I2
aI6
aI5
aI4
aI3
aI0
aI7
aI1
aI8
aa(lp6
I2
aI6
aI5
aI4
aI0
aI3
aI7
aI1
aI8
aa(lp7
I2
aI0
aI5
aI4
aI6
aI3
aI7
aI1
aI8
aa(lp8
I2
aI5
aI0
aI4
aI6
aI3
aI7
aI1
aI8
aa(lp9
I2
aI5
aI3
aI4
aI6
aI0
aI7
aI1
aI8
aa(lp10
I2
aI5
aI3
aI4
aI0
aI6
aI7
aI1
aI8
aa(lp11
I2
aI5
aI3
aI4
aI1
aI6
aI7
aI0
aI8
aa(lp12
I2
aI5
aI3
aI4
aI1
aI6
aI0
aI7
aI8
aa(lp13
I2
aI5
aI3
aI0
aI1
aI6
aI4
aI7
aI8
aa(lp14
I2
aI5
aI3
aI1
aI0
aI6
aI4
aI7
aI8
aa(lp15
I2
aI0
aI3
aI1
aI5
aI6
aI4
aI7
aI8
aa(lp16
I0
aI2
aI3
aI1
aI5
aI6
aI4
aI7
aI8
aa(lp17
I1
aI2
aI3
aI0
aI5
aI6
aI4
aI7
aI8
aa(lp18
I1
aI2
aI3
aI4
aI5
aI6
aI0
aI7
aI8
aa(lp19
I1
aI2
aI3
aI4
aI5
aI6
aI7
aI0
aI8
aa(lp20
I1
aI2
aI3
aI4
aI5
aI6
aI7
aI8
aI0
aasS'goalState'
p21
(lp22
I1
aI2
aI3
aI4
aI5
aI6
aI7
aI8
aI0
asS'initialState'
p23
g5
sb.(i__main__
Case
p1
(dp2
S'path'
p3
(lp4
(lp5
I3
aI0
aI6
aI5
aI7
aI8
aI2
aI1
aI4
aa(lp6
I3
aI6
aI0
aI5
aI7
aI8
aI2
aI1
aI4
aa(lp7
I3
aI0
aI6
aI5
aI7
aI8
aI2
aI1
aI4
aa(lp8
I0
aI3
aI6
aI5
aI7
aI8
aI2
aI1
aI4
aa(lp9
I5
aI3
aI6
aI0
aI7
aI8
aI2
aI1
aI4
aa(lp10
I5
aI3
aI6
aI2
aI7
aI8
aI0
aI1
aI4
aa(lp11
I5
aI3
aI6
aI2
aI7
aI8
aI1
aI0
aI4
aa(lp12
I5
aI3
aI6
aI2
aI7
aI8
aI1
aI4
aI0
aa(lp13
I5
aI3
aI6
aI2
aI7
aI0
aI1
aI4
aI8
aa(lp14
I5
aI3
aI0
aI2
aI7
aI6
aI1
aI4
aI8
aa(lp15
I5
aI0
aI3
aI2
aI7
aI6
aI1
aI4
aI8
aa(lp16
I0
aI5
aI3
aI2
aI7
aI6
aI1
aI4
aI8
aa(lp17
I2
aI5
aI3
aI0
aI7
aI6
aI1
aI4
aI8
aa(lp18
I2
aI5
aI3
aI1
aI7
aI6
aI0
aI4
aI8
aa(lp19
I2
aI5
aI3
aI1
aI7
aI6
aI4
aI0
aI8
aa(lp20
I2
aI5
aI3
aI1
aI0
aI6
aI4
aI7
aI8
aa(lp21
I2
aI0
aI3
aI1
aI5
aI6
aI4
aI7
aI8
aa(lp22
I0
aI2
aI3
aI1
aI5
aI6
aI4
aI7
aI8
aa(lp23
I1
aI2
aI3
aI0
aI5
aI6
aI4
aI7
aI8
aa(lp24
I1
aI2
aI3
aI4
aI5
aI6
aI0
aI7
aI8
aa(lp25
I1
aI2
aI3
aI4
aI5
aI6
aI7
aI0
aI8
aa(lp26
I1
aI2
aI3
aI4
aI5
aI6
aI7
aI8
aI0
aasS'goalState'
p27
(lp28
I1
aI2
aI3
aI4
aI5
aI6
aI7
aI8
aI0
asS'initialState'
p29
g5
sb.(i__main__
Case
p1
(dp2
S'path'
p3
(lp4
(lp5
I1
aI5
aI8
aI2
aI3
aI0
aI4
aI6
aI7
aa(lp6
I1
aI5
aI0
aI2
aI3
aI8
aI4
aI6
aI7
aa(lp7
I1
aI0
aI5
aI2
aI3
aI8
aI4
aI6
aI7
aa(lp8
I1
aI3
aI5
aI2
aI0
aI8
aI4
aI6
aI7
aa(lp9
I1
aI3
aI5
aI2
aI6
aI8
aI4
aI0
aI7
aa(lp10
I1
aI3
aI5
aI2
aI6
aI8
aI4
aI7
aI0
aa(lp11
I1
aI3
aI5
aI2
aI6
aI0
aI4
aI7
aI8
aa(lp12
I1
aI3
aI5
aI2
aI0
aI6
aI4
aI7
aI8
aa(lp13
I1
aI3
aI5
aI0
aI2
aI6
aI4
aI7
aI8
aa(lp14
I1
aI3
aI5
aI4
aI2
aI6
aI0
aI7
aI8
aa(lp15
I1
aI3
aI5
aI4
aI2
aI6
aI7
aI0
aI8
aa(lp16
I1
aI3
aI5
aI4
aI2
aI6
aI7
aI8
aI0
aa(lp17
I1
aI3
aI5
aI4
aI2
aI0
aI7
aI8
aI6
aa(lp18
I1
aI3
aI0
aI4
aI2
aI5
aI7
aI8
aI6
aa(lp19
I1
aI0
aI3
aI4
aI2
aI5
aI7
aI8
aI6
aa(lp20
I1
aI2
aI3
aI4
aI0
aI5
aI7
aI8
aI6
aa(lp21
I1
aI2
aI3
aI4
aI5
aI0
aI7
aI8
aI6
aa(lp22
I1
aI2
aI3
aI4
aI5
aI6
aI7
aI8
aI0
aasS'goalState'
p23
(lp24
I1
aI2
aI3
aI4
aI5
aI6
aI7
aI8
aI0
asS'initialState'
p25
g5
sb.(i__main__
Case
p1
(dp2
S'path'
p3
(lp4
(lp5
I2
aI5
aI3
aI0
aI4
aI8
aI6
aI1
aI7
aa(lp6
I2
aI5
aI3
aI4
aI0
aI8
aI6
aI1
aI7
aa(lp7
I2
aI5
aI3
aI4
aI1
aI8
aI6
aI0
aI7
aa(lp8
I2
aI5
aI3
aI4
aI1
aI8
aI0
aI6
aI7
aa(lp9
I2
aI5
aI3
aI0
aI1
aI8
aI4
aI6
aI7
aa(lp10
I2
aI5
aI3
aI1
aI0
aI8
aI4
aI6
aI7
aa(lp11
I2
aI5
aI3
aI1
aI6
aI8
aI4
aI0
aI7
aa(lp12
I2
aI5
aI3
aI1
aI6
aI8
aI4
aI7
aI0
aa(lp13
I2
aI5
aI3
aI1
aI6
aI0
aI4
aI7
aI8
aa(lp14
I2
aI5
aI3
aI1
aI0
aI6
aI4
aI7
aI8
aa(lp15
I2
aI0
aI3
aI1
aI5
aI6
aI4
aI7
aI8
aa(lp16
I0
aI2
aI3
aI1
aI5
aI6
aI4
aI7
aI8
aa(lp17
I1
aI2
aI3
aI0
aI5
aI6
aI4
aI7
aI8
aa(lp18
I1
aI2
aI3
aI4
aI5
aI6
aI0
aI7
aI8
aa(lp19
I1
aI2
aI3
aI4
aI5
aI6
aI7
aI0
aI8
aa(lp20
I1
aI2
aI3
aI4
aI5
aI6
aI7
aI8
aI0
aasS'goalState'
p21
(lp22
I1
aI2
aI3
aI4
aI5
aI6
aI7
aI8
aI0
asS'initialState'
p23
g5
sb.(i__main__
Case
p1
(dp2
S'path'
p3
(lp4
(lp5
I3
aI8
aI5
aI1
aI6
aI0
aI4
aI2
aI7
aa(lp6
I3
aI8
aI5
aI1
aI6
aI7
aI4
aI2
aI0
aa(lp7
I3
aI8
aI5
aI1
aI6
aI0
aI4
aI2
aI7
aa(lp8
I3
aI8
aI5
aI1
aI0
aI6
aI4
aI2
aI7
aa(lp9
I3
aI0
aI5
aI1
aI8
aI6
aI4
aI2
aI7
aa(lp10
I0
aI3
aI5
aI1
aI8
aI6
aI4
aI2
aI7
aa(lp11
I1
aI3
aI5
aI0
aI8
aI6
aI4
aI2
aI7
aa(lp12
I1
aI3
aI5
aI8
aI0
aI6
aI4
aI2
aI7
aa(lp13
I1
aI3
aI5
aI8
aI2
aI6
aI4
aI0
aI7
aa(lp14
I1
aI3
aI5
aI8
aI2
aI6
aI4
aI7
aI0
aa(lp15
I1
aI3
aI5
aI8
aI2
aI0
aI4
aI7
aI6
aa(lp16
I1
aI3
aI0
aI8
aI2
aI5
aI4
aI7
aI6
aa(lp17
I1
aI0
aI3
aI8
aI2
aI5
aI4
aI7
aI6
aa(lp18
I1
aI2
aI3
aI8
aI0
aI5
aI4
aI7
aI6
aa(lp19
I1
aI2
aI3
aI0
aI8
aI5
aI4
aI7
aI6
aa(lp20
I1
aI2
aI3
aI4
aI8
aI5
aI0
aI7
aI6
aa(lp21
I1
aI2
aI3
aI4
aI8
aI5
aI7
aI0
aI6
aa(lp22
I1
aI2
aI3
aI4
aI0
aI5
aI7
aI8
aI6
aa(lp23
I1
aI2
aI3
aI4
aI5
aI0
aI7
aI8
aI6
aa(lp24
I1
aI2
aI3
aI4
aI5
aI6
aI7
aI8
aI0
aasS'goalState'
p25
(lp26
I1
aI2
aI3
aI4
aI5
aI6
aI7
aI8
aI0
asS'initialState'
p27
g5
sb.